target datalayout = "e-m:e-p270:32:32-p271:32:32-p272:64:64-i64:64-i128:128-f80:128-n8:16:32:64-S128"
target triple = "x86_64-pc-linux-gnu"

%struct.__va_list_tag = type { i32, i32, ptr, ptr }

@.str.29 = private unnamed_addr constant [2 x i8] c"\0A\00", align 1
@.str.42 = private unnamed_addr constant [24 x i8] c"selection method '%s': \00", align 1

; Function Attrs: mustprogress nounwind uwtable
define internal void @_ZL12report_errorP8_IO_FILEPKcS2_z(ptr noundef %0, ptr noundef %1, ptr noundef %2, ...) #4 {
  %4 = alloca ptr, align 8
  %5 = alloca ptr, align 8
  %6 = alloca ptr, align 8
  %7 = alloca [1 x %struct.__va_list_tag], align 16
  store ptr %0, ptr %4, align 8, !tbaa !21
  store ptr %1, ptr %5, align 8, !tbaa !9
  store ptr %2, ptr %6, align 8, !tbaa !9
  call void @llvm.lifetime.start.p0(i64 24, ptr %7) #15
  %8 = getelementptr inbounds [1 x %struct.__va_list_tag], ptr %7, i64 0, i64 0
  call void @llvm.va_start.p0(ptr %8)
  %9 = load ptr, ptr %4, align 8, !tbaa !21
  %10 = icmp ne ptr %9, null
  br i1 %10, label %11, label %21

11:                                               ; preds = %3
  %12 = load ptr, ptr %4, align 8, !tbaa !21
  %13 = load ptr, ptr %5, align 8, !tbaa !9
  %14 = call i32 (ptr, ptr, ...) @fprintf(ptr noundef %12, ptr noundef @.str.42, ptr noundef %13) #15
  %15 = load ptr, ptr %4, align 8, !tbaa !21
  %16 = load ptr, ptr %6, align 8, !tbaa !9
  %17 = getelementptr inbounds [1 x %struct.__va_list_tag], ptr %7, i64 0, i64 0
  %18 = call i32 @vfprintf(ptr noundef %15, ptr noundef %16, ptr noundef %17) #15
  %19 = load ptr, ptr %4, align 8, !tbaa !21
  %20 = call i32 (ptr, ptr, ...) @fprintf(ptr noundef %19, ptr noundef @.str.29) #15
  br label %21

21:                                               ; preds = %11, %3
  %22 = getelementptr inbounds [1 x %struct.__va_list_tag], ptr %7, i64 0, i64 0
  call void @llvm.va_end.p0(ptr %22)
  call void @llvm.lifetime.end.p0(i64 24, ptr %7) #15
  ret void
}