; Function Attrs: mustprogress nofree nounwind uwtable
define internal void @_ZL12report_errorP8_IO_FILEPKcS2_z(ptr noundef %0, ptr noundef %1, ptr noundef readonly captures(none) %2, ...) unnamed_addr #4 {
  %4 = alloca [1 x %struct.__va_list_tag], align 16
  call void @llvm.lifetime.start.p0(i64 24, ptr nonnull %4) #14
  call void @llvm.va_start.p0(ptr nonnull %4)
  %.not = icmp eq ptr %0, null
  br i1 %.not, label %8, label %5

5:                                                ; preds = %3
  %6 = call i32 (ptr, ptr, ...) @fprintf(ptr noundef nonnull %0, ptr noundef nonnull @.str.42, ptr noundef %1) #14
  %7 = call i32 @vfprintf(ptr noundef nonnull %0, ptr noundef %2, ptr noundef nonnull %4) #14
  %fputc = call i32 @fputc(i32 10, ptr nonnull %0)
  br label %8

8:                                                ; preds = %5, %3
  call void @llvm.va_end.p0(ptr nonnull %4)
  call void @llvm.lifetime.end.p0(i64 24, ptr nonnull %4) #14
  ret void
}